; Function Attrs: mustprogress nofree norecurse nosync nounwind willreturn memory(read, inaccessiblemem: none) uwtable
define noundef i32 @_ZNK5ZXing6Pdf41712BarcodeValue10confidenceEi(ptr noundef nonnull readonly align 8 dereferenceable(48) %0, i32 noundef %1) local_unnamed_addr #1 align 2 {
  %3 = getelementptr inbounds i8, ptr %0, i64 16
  %4 = load ptr, ptr %3, align 8
  %5 = getelementptr inbounds i8, ptr %0, i64 8
  %.not10.i.i.i = icmp eq ptr %4, null
  br i1 %.not10.i.i.i, label %_ZNKSt3mapIiiSt4lessIiESaISt4pairIKiiEEE4findERS3_.exit.thread, label %.lr.ph.i.i.i

.lr.ph.i.i.i:                                     ; preds = %2, %.lr.ph.i.i.i
  %.012.i.i.i = phi ptr [ %.1.i.i.i, %.lr.ph.i.i.i ], [ %4, %2 ]
  %.0811.i.i.i = phi ptr [ %.19.i.i.i, %.lr.ph.i.i.i ], [ %5, %2 ]
  %6 = getelementptr inbounds i8, ptr %.012.i.i.i, i64 32
  %7 = load i32, ptr %6, align 4
  %8 = icmp slt i32 %7, %1
  %.19.i.i.i = select i1 %8, ptr %.0811.i.i.i, ptr %.012.i.i.i
  %.1.in.v.i.i.i = select i1 %8, i64 24, i64 16
  %.1.in.i.i.i = getelementptr inbounds i8, ptr %.012.i.i.i, i64 %.1.in.v.i.i.i
  %.1.i.i.i = load ptr, ptr %.1.in.i.i.i, align 8
  %.not.i.i.i = icmp eq ptr %.1.i.i.i, null
  br i1 %.not.i.i.i, label %_ZNKSt8_Rb_treeIiSt4pairIKiiESt10_Select1stIS2_ESt4lessIiESaIS2_EE14_M_lower_boundEPKSt13_Rb_tree_nodeIS2_EPKSt18_Rb_tree_node_baseRS1_.exit.i.i, label %.lr.ph.i.i.i, !llvm.loop !7

_ZNKSt8_Rb_treeIiSt4pairIKiiESt10_Select1stIS2_ESt4lessIiESaIS2_EE14_M_lower_boundEPKSt13_Rb_tree_nodeIS2_EPKSt18_Rb_tree_node_baseRS1_.exit.i.i: ; preds = %.lr.ph.i.i.i
  %9 = icmp eq ptr %.19.i.i.i, %5
  br i1 %9, label %_ZNKSt3mapIiiSt4lessIiESaISt4pairIKiiEEE4findERS3_.exit.thread, label %_ZNKSt3mapIiiSt4lessIiESaISt4pairIKiiEEE4findERS3_.exit

_ZNKSt3mapIiiSt4lessIiESaISt4pairIKiiEEE4findERS3_.exit: ; preds = %_ZNKSt8_Rb_treeIiSt4pairIKiiESt10_Select1stIS2_ESt4lessIiESaIS2_EE14_M_lower_boundEPKSt13_Rb_tree_nodeIS2_EPKSt18_Rb_tree_node_baseRS1_.exit.i.i
  %10 = getelementptr inbounds i8, ptr %.19.i.i.i, i64 32
  %11 = load i32, ptr %10, align 4
  %12 = icmp sgt i32 %11, %1
  br i1 %12, label %_ZNKSt3mapIiiSt4lessIiESaISt4pairIKiiEEE4findERS3_.exit.thread, label %13

13:                                               ; preds = %_ZNKSt3mapIiiSt4lessIiESaISt4pairIKiiEEE4findERS3_.exit
  %14 = getelementptr inbounds i8, ptr %.19.i.i.i, i64 36
  %15 = load i32, ptr %14, align 4
  br label %_ZNKSt3mapIiiSt4lessIiESaISt4pairIKiiEEE4findERS3_.exit.thread

_ZNKSt3mapIiiSt4lessIiESaISt4pairIKiiEEE4findERS3_.exit.thread: ; preds = %2, %_ZNKSt8_Rb_treeIiSt4pairIKiiESt10_Select1stIS2_ESt4lessIiESaIS2_EE14_M_lower_boundEPKSt13_Rb_tree_nodeIS2_EPKSt18_Rb_tree_node_baseRS1_.exit.i.i, %_ZNKSt3mapIiiSt4lessIiESaISt4pairIKiiEEE4findERS3_.exit, %13
  %16 = phi i32 [ %15, %13 ], [ 0, %_ZNKSt3mapIiiSt4lessIiESaISt4pairIKiiEEE4findERS3_.exit ], [ 0, %_ZNKSt8_Rb_treeIiSt4pairIKiiESt10_Select1stIS2_ESt4lessIiESaIS2_EE14_M_lower_boundEPKSt13_Rb_tree_nodeIS2_EPKSt18_Rb_tree_node_baseRS1_.exit.i.i ], [ 0, %2 ]
  ret i32 %16
}